; ModuleID = 'source-C-CXX/48/477.cpp'
source_filename = "source-C-CXX/48/477.cpp"
target datalayout = "e-m:e-p270:32:32-p271:32:32-p272:64:64-i64:64-f80:128-n8:16:32:64-S128"
target triple = "x86_64-pc-linux-gnu"

%"class.std::ios_base::Init" = type { i8 }
%"class.std::basic_ostream" = type { i32 (...)**, %"class.std::basic_ios" }
%"class.std::basic_ios" = type { %"class.std::ios_base", %"class.std::basic_ostream"*, i8, i8, %"class.std::basic_streambuf"*, %"class.std::ctype"*, %"class.std::num_put"*, %"class.std::num_get"* }
%"class.std::ios_base" = type { i32 (...)**, i64, i64, i32, i32, i32, %"struct.std::ios_base::_Callback_list"*, %"struct.std::ios_base::_Words", [8 x %"struct.std::ios_base::_Words"], i32, %"struct.std::ios_base::_Words"*, %"class.std::locale" }
%"struct.std::ios_base::_Callback_list" = type { %"struct.std::ios_base::_Callback_list"*, void (i32, %"class.std::ios_base"*, i32)*, i32, i32 }
%"struct.std::ios_base::_Words" = type { i8*, i64 }
%"class.std::locale" = type { %"class.std::locale::_Impl"* }
%"class.std::locale::_Impl" = type { i32, %"class.std::locale::facet"**, i64, %"class.std::locale::facet"**, i8** }
%"class.std::locale::facet" = type <{ i32 (...)**, i32, [4 x i8] }>
%"class.std::basic_streambuf" = type { i32 (...)**, i8*, i8*, i8*, i8*, i8*, i8*, %"class.std::locale" }
%"class.std::ctype" = type <{ %"class.std::locale::facet.base", [4 x i8], %struct.__locale_struct*, i8, [7 x i8], i32*, i32*, i16*, i8, [256 x i8], [256 x i8], i8, [6 x i8] }>
%"class.std::locale::facet.base" = type <{ i32 (...)**, i32 }>
%struct.__locale_struct = type { [13 x %struct.__locale_data*], i16*, i32*, i32*, [13 x i8*] }
%struct.__locale_data = type opaque
%"class.std::num_put" = type { %"class.std::locale::facet.base", [4 x i8] }
%"class.std::num_get" = type { %"class.std::locale::facet.base", [4 x i8] }
%"class.std::basic_istream" = type { i32 (...)**, i64, %"class.std::basic_ios" }

@_ZStL8__ioinit = internal global %"class.std::ios_base::Init" zeroinitializer, align 1
@__dso_handle = external hidden global i8
@_ZSt4cout = external global %"class.std::basic_ostream", align 8
@_ZSt3cin = external global %"class.std::basic_istream", align 8
@llvm.global_ctors = appending global [1 x { i32, void ()*, i8* }] [{ i32, void ()*, i8* } { i32 65535, void ()* @_GLOBAL__sub_I_477.cpp, i8* null }]

declare void @_ZNSt8ios_base4InitC1Ev(%"class.std::ios_base::Init"* nonnull align 1 dereferenceable(1)) unnamed_addr #0

; Function Attrs: nounwind
declare void @_ZNSt8ios_base4InitD1Ev(%"class.std::ios_base::Init"* nonnull align 1 dereferenceable(1)) unnamed_addr #1

; Function Attrs: nofree nounwind
declare i32 @__cxa_atexit(void (i8*)*, i8*, i8*) local_unnamed_addr #2

; Function Attrs: mustprogress sspstrong uwtable
define dso_local void @_Z6huiweniiPc(i32 %0, i32 %1, i8* nocapture readonly %2) local_unnamed_addr #3 {
  %4 = alloca i8, align 1
  %5 = icmp slt i32 %1, %0
  br i1 %5, label %139, label %6

6:                                                ; preds = %3
  %7 = icmp sgt i32 %0, 0
  %8 = add i32 %1, 1
  %9 = sub i32 %8, %0
  br i1 %7, label %10, label %108

10:                                               ; preds = %6
  %11 = zext i32 %9 to i64
  %12 = zext i32 %0 to i64
  %13 = and i64 %12, 1
  %14 = icmp eq i32 %0, 1
  %15 = and i64 %12, 4294967294
  %16 = icmp eq i64 %13, 0
  br label %17

17:                                               ; preds = %10, %46
  %18 = phi i64 [ 0, %10 ], [ %47, %46 ]
  %19 = trunc i64 %18 to i32
  %20 = add i32 %19, %0
  br i1 %14, label %79, label %49

21:                                               ; preds = %98
  %22 = getelementptr inbounds %"class.std::ctype", %"class.std::ctype"* %106, i64 0, i32 8
  %23 = load i8, i8* %22, align 8, !tbaa !5
  %24 = icmp eq i8 %23, 0
  br i1 %24, label %28, label %25

25:                                               ; preds = %21
  %26 = getelementptr inbounds %"class.std::ctype", %"class.std::ctype"* %106, i64 0, i32 9, i64 10
  %27 = load i8, i8* %26, align 1, !tbaa !11
  br label %34

28:                                               ; preds = %21
  call void @_ZNKSt5ctypeIcE13_M_widen_initEv(%"class.std::ctype"* nonnull align 8 dereferenceable(570) %106)
  %29 = bitcast %"class.std::ctype"* %106 to i8 (%"class.std::ctype"*, i8)***
  %30 = load i8 (%"class.std::ctype"*, i8)**, i8 (%"class.std::ctype"*, i8)*** %29, align 8, !tbaa !12
  %31 = getelementptr inbounds i8 (%"class.std::ctype"*, i8)*, i8 (%"class.std::ctype"*, i8)** %30, i64 6
  %32 = load i8 (%"class.std::ctype"*, i8)*, i8 (%"class.std::ctype"*, i8)** %31, align 8
  %33 = call signext i8 %32(%"class.std::ctype"* nonnull align 8 dereferenceable(570) %106, i8 signext 10)
  br label %34

34:                                               ; preds = %28, %25
  %35 = phi i8 [ %27, %25 ], [ %33, %28 ]
  %36 = call nonnull align 8 dereferenceable(8) %"class.std::basic_ostream"* @_ZNSo3putEc(%"class.std::basic_ostream"* nonnull align 8 dereferenceable(8) @_ZSt4cout, i8 signext %35)
  %37 = call nonnull align 8 dereferenceable(8) %"class.std::basic_ostream"* @_ZNSo5flushEv(%"class.std::basic_ostream"* nonnull align 8 dereferenceable(8) %36)
  br label %46

38:                                               ; preds = %95, %38
  %39 = phi i64 [ %44, %38 ], [ 0, %95 ]
  %40 = add nuw nsw i64 %39, %18
  %41 = getelementptr inbounds i8, i8* %2, i64 %40
  %42 = load i8, i8* %41, align 1, !tbaa !11
  call void @llvm.lifetime.start.p0i8(i64 1, i8* nonnull %4)
  store i8 %42, i8* %4, align 1, !tbaa !11
  %43 = call nonnull align 8 dereferenceable(8) %"class.std::basic_ostream"* @_ZSt16__ostream_insertIcSt11char_traitsIcEERSt13basic_ostreamIT_T0_ES6_PKS3_l(%"class.std::basic_ostream"* nonnull align 8 dereferenceable(8) @_ZSt4cout, i8* nonnull %4, i64 1)
  call void @llvm.lifetime.end.p0i8(i64 1, i8* nonnull %4)
  %44 = add nuw nsw i64 %39, 1
  %45 = icmp eq i64 %44, %12
  br i1 %45, label %98, label %38, !llvm.loop !14

46:                                               ; preds = %95, %34
  %47 = add nuw nsw i64 %18, 1
  %48 = icmp eq i64 %47, %11
  br i1 %48, label %139, label %17, !llvm.loop !16

49:                                               ; preds = %17, %49
  %50 = phi i64 [ %75, %49 ], [ 0, %17 ]
  %51 = phi i32 [ %74, %49 ], [ 1, %17 ]
  %52 = phi i32 [ %76, %49 ], [ 0, %17 ]
  %53 = phi i64 [ %77, %49 ], [ %15, %17 ]
  %54 = add nuw nsw i64 %50, %18
  %55 = getelementptr inbounds i8, i8* %2, i64 %54
  %56 = load i8, i8* %55, align 1, !tbaa !11
  %57 = xor i32 %52, -1
  %58 = add i32 %20, %57
  %59 = sext i32 %58 to i64
  %60 = getelementptr inbounds i8, i8* %2, i64 %59
  %61 = load i8, i8* %60, align 1, !tbaa !11
  %62 = icmp eq i8 %56, %61
  %63 = or i64 %50, 1
  %64 = add nuw nsw i64 %63, %18
  %65 = getelementptr inbounds i8, i8* %2, i64 %64
  %66 = load i8, i8* %65, align 1, !tbaa !11
  %67 = sub nuw nsw i32 -2, %52
  %68 = add i32 %20, %67
  %69 = sext i32 %68 to i64
  %70 = getelementptr inbounds i8, i8* %2, i64 %69
  %71 = load i8, i8* %70, align 1, !tbaa !11
  %72 = icmp eq i8 %66, %71
  %73 = select i1 %72, i1 %62, i1 false
  %74 = select i1 %73, i32 %51, i32 0
  %75 = add nuw nsw i64 %50, 2
  %76 = add nuw nsw i32 %52, 2
  %77 = add i64 %53, -2
  %78 = icmp eq i64 %77, 0
  br i1 %78, label %79, label %49, !llvm.loop !17

79:                                               ; preds = %49, %17
  %80 = phi i32 [ undef, %17 ], [ %74, %49 ]
  %81 = phi i64 [ 0, %17 ], [ %75, %49 ]
  %82 = phi i32 [ 1, %17 ], [ %74, %49 ]
  %83 = phi i32 [ 0, %17 ], [ %76, %49 ]
  br i1 %16, label %95, label %84

84:                                               ; preds = %79
  %85 = add nuw nsw i64 %81, %18
  %86 = getelementptr inbounds i8, i8* %2, i64 %85
  %87 = load i8, i8* %86, align 1, !tbaa !11
  %88 = xor i32 %83, -1
  %89 = add i32 %20, %88
  %90 = sext i32 %89 to i64
  %91 = getelementptr inbounds i8, i8* %2, i64 %90
  %92 = load i8, i8* %91, align 1, !tbaa !11
  %93 = icmp eq i8 %87, %92
  %94 = select i1 %93, i32 %82, i32 0
  br label %95

95:                                               ; preds = %79, %84
  %96 = phi i32 [ %80, %79 ], [ %94, %84 ]
  %97 = icmp eq i32 %96, 0
  br i1 %97, label %46, label %38

98:                                               ; preds = %38
  %99 = load i8*, i8** bitcast (%"class.std::basic_ostream"* @_ZSt4cout to i8**), align 8, !tbaa !12
  %100 = getelementptr i8, i8* %99, i64 -24
  %101 = bitcast i8* %100 to i64*
  %102 = load i64, i64* %101, align 8
  %103 = add nsw i64 %102, 240
  %104 = getelementptr inbounds i8, i8* bitcast (%"class.std::basic_ostream"* @_ZSt4cout to i8*), i64 %103
  %105 = bitcast i8* %104 to %"class.std::ctype"**
  %106 = load %"class.std::ctype"*, %"class.std::ctype"** %105, align 8, !tbaa !18
  %107 = icmp eq %"class.std::ctype"* %106, null
  br i1 %107, label %119, label %21

108:                                              ; preds = %6, %133
  %109 = phi i32 [ %137, %133 ], [ 0, %6 ]
  %110 = load i8*, i8** bitcast (%"class.std::basic_ostream"* @_ZSt4cout to i8**), align 8, !tbaa !12
  %111 = getelementptr i8, i8* %110, i64 -24
  %112 = bitcast i8* %111 to i64*
  %113 = load i64, i64* %112, align 8
  %114 = add nsw i64 %113, 240
  %115 = getelementptr inbounds i8, i8* bitcast (%"class.std::basic_ostream"* @_ZSt4cout to i8*), i64 %114
  %116 = bitcast i8* %115 to %"class.std::ctype"**
  %117 = load %"class.std::ctype"*, %"class.std::ctype"** %116, align 8, !tbaa !18
  %118 = icmp eq %"class.std::ctype"* %117, null
  br i1 %118, label %119, label %120

119:                                              ; preds = %108, %98
  call void @_ZSt16__throw_bad_castv() #9
  unreachable

120:                                              ; preds = %108
  %121 = getelementptr inbounds %"class.std::ctype", %"class.std::ctype"* %117, i64 0, i32 8
  %122 = load i8, i8* %121, align 8, !tbaa !5
  %123 = icmp eq i8 %122, 0
  br i1 %123, label %127, label %124

124:                                              ; preds = %120
  %125 = getelementptr inbounds %"class.std::ctype", %"class.std::ctype"* %117, i64 0, i32 9, i64 10
  %126 = load i8, i8* %125, align 1, !tbaa !11
  br label %133

127:                                              ; preds = %120
  call void @_ZNKSt5ctypeIcE13_M_widen_initEv(%"class.std::ctype"* nonnull align 8 dereferenceable(570) %117)
  %128 = bitcast %"class.std::ctype"* %117 to i8 (%"class.std::ctype"*, i8)***
  %129 = load i8 (%"class.std::ctype"*, i8)**, i8 (%"class.std::ctype"*, i8)*** %128, align 8, !tbaa !12
  %130 = getelementptr inbounds i8 (%"class.std::ctype"*, i8)*, i8 (%"class.std::ctype"*, i8)** %129, i64 6
  %131 = load i8 (%"class.std::ctype"*, i8)*, i8 (%"class.std::ctype"*, i8)** %130, align 8
  %132 = call signext i8 %131(%"class.std::ctype"* nonnull align 8 dereferenceable(570) %117, i8 signext 10)
  br label %133

133:                                              ; preds = %124, %127
  %134 = phi i8 [ %126, %124 ], [ %132, %127 ]
  %135 = call nonnull align 8 dereferenceable(8) %"class.std::basic_ostream"* @_ZNSo3putEc(%"class.std::basic_ostream"* nonnull align 8 dereferenceable(8) @_ZSt4cout, i8 signext %134)
  %136 = call nonnull align 8 dereferenceable(8) %"class.std::basic_ostream"* @_ZNSo5flushEv(%"class.std::basic_ostream"* nonnull align 8 dereferenceable(8) %135)
  %137 = add nuw i32 %109, 1
  %138 = icmp eq i32 %137, %9
  br i1 %138, label %139, label %108, !llvm.loop !16

139:                                              ; preds = %133, %46, %3
  ret void
}

; Function Attrs: argmemonly mustprogress nofree nosync nounwind willreturn
declare void @llvm.lifetime.start.p0i8(i64 immarg, i8* nocapture) #4

; Function Attrs: argmemonly mustprogress nofree nosync nounwind willreturn
declare void @llvm.lifetime.end.p0i8(i64 immarg, i8* nocapture) #4

; Function Attrs: mustprogress norecurse sspstrong uwtable
define dso_local i32 @main() local_unnamed_addr #5 {
  %1 = alloca [501 x i8], align 16
  %2 = getelementptr inbounds [501 x i8], [501 x i8]* %1, i64 0, i64 0
  call void @llvm.lifetime.start.p0i8(i64 501, i8* nonnull %2) #10
  call void @_ZSt17__istream_extractRSiPcl(%"class.std::basic_istream"* nonnull align 8 dereferenceable(16) @_ZSt3cin, i8* nonnull %2, i64 501)
  %3 = call i64 @strlen(i8* noundef nonnull %2) #11
  %4 = trunc i64 %3 to i32
  %5 = icmp slt i32 %4, 2
  br i1 %5, label %10, label %6

6:                                                ; preds = %0, %6
  %7 = phi i32 [ %8, %6 ], [ 2, %0 ]
  call void @_Z6huiweniiPc(i32 %7, i32 %4, i8* nonnull %2)
  %8 = add nuw i32 %7, 1
  %9 = icmp eq i32 %7, %4
  br i1 %9, label %10, label %6, !llvm.loop !20

10:                                               ; preds = %6, %0
  call void @llvm.lifetime.end.p0i8(i64 501, i8* nonnull %2) #10
  ret i32 0
}

; Function Attrs: argmemonly mustprogress nofree nounwind readonly willreturn
declare i64 @strlen(i8* nocapture) local_unnamed_addr #6

declare nonnull align 8 dereferenceable(8) %"class.std::basic_ostream"* @_ZSt16__ostream_insertIcSt11char_traitsIcEERSt13basic_ostreamIT_T0_ES6_PKS3_l(%"class.std::basic_ostream"* nonnull align 8 dereferenceable(8), i8*, i64) local_unnamed_addr #0

declare nonnull align 8 dereferenceable(8) %"class.std::basic_ostream"* @_ZNSo3putEc(%"class.std::basic_ostream"* nonnull align 8 dereferenceable(8), i8 signext) local_unnamed_addr #0

declare nonnull align 8 dereferenceable(8) %"class.std::basic_ostream"* @_ZNSo5flushEv(%"class.std::basic_ostream"* nonnull align 8 dereferenceable(8)) local_unnamed_addr #0

; Function Attrs: noreturn
declare void @_ZSt16__throw_bad_castv() local_unnamed_addr #7

declare void @_ZNKSt5ctypeIcE13_M_widen_initEv(%"class.std::ctype"* nonnull align 8 dereferenceable(570)) local_unnamed_addr #0

declare void @_ZSt17__istream_extractRSiPcl(%"class.std::basic_istream"* nonnull align 8 dereferenceable(16), i8*, i64) local_unnamed_addr #0

; Function Attrs: sspstrong uwtable
define internal void @_GLOBAL__sub_I_477.cpp() #8 section ".text.startup" {
  tail call void @_ZNSt8ios_base4InitC1Ev(%"class.std::ios_base::Init"* nonnull align 1 dereferenceable(1) @_ZStL8__ioinit)
  %1 = tail call i32 @__cxa_atexit(void (i8*)* bitcast (void (%"class.std::ios_base::Init"*)* @_ZNSt8ios_base4InitD1Ev to void (i8*)*), i8* getelementptr inbounds (%"class.std::ios_base::Init", %"class.std::ios_base::Init"* @_ZStL8__ioinit, i64 0, i32 0), i8* nonnull @__dso_handle) #10
  ret void
}


!llvm.module.flags = !{!0, !1, !2, !3}
!llvm.ident = !{!4}

!0 = !{i32 1, !"wchar_size", i32 4}
!1 = !{i32 7, !"PIC Level", i32 2}
!2 = !{i32 7, !"PIE Level", i32 2}
!3 = !{i32 7, !"uwtable", i32 1}
!4 = !{!"clang version 13.0.0"}
!5 = !{!6, !8, i64 56}
!6 = !{!"_ZTSSt5ctypeIcE", !7, i64 16, !10, i64 24, !7, i64 32, !7, i64 40, !7, i64 48, !8, i64 56, !8, i64 57, !8, i64 313, !8, i64 569}
!7 = !{!"any pointer", !8, i64 0}
!8 = !{!"omnipotent char", !9, i64 0}
!9 = !{!"Simple C++ TBAA"}
!10 = !{!"bool", !8, i64 0}
!11 = !{!8, !8, i64 0}
!12 = !{!13, !13, i64 0}
!13 = !{!"vtable pointer", !9, i64 0}
!14 = distinct !{!14, !15}
!15 = !{!"llvm.loop.mustprogress"}
!16 = distinct !{!16, !15}
!17 = distinct !{!17, !15}
!18 = !{!19, !7, i64 240}
!19 = !{!"_ZTSSt9basic_iosIcSt11char_traitsIcEE", !7, i64 216, !8, i64 224, !10, i64 225, !7, i64 232, !7, i64 240, !7, i64 248, !7, i64 256}
!20 = distinct !{!20, !15}
